target datalayout = "e-m:e-p270:32:32-p271:32:32-p272:64:64-i64:64-i128:128-f80:128-n8:16:32:64-S128"
target triple = "x86_64-pc-linux-gnu"

%struct.mi_commit_mask_s = type { [16 x i64] }

; Function Attrs: inlinehint nounwind uwtable
define internal void @mi_commit_mask_create_empty(ptr noundef %0) #2 {
  %2 = alloca ptr, align 8
  %3 = alloca i64, align 8
  store ptr %0, ptr %2, align 8, !tbaa !7
  call void @llvm.lifetime.start.p0(i64 8, ptr %3) #8
  store i64 0, ptr %3, align 8, !tbaa !3
  br label %4

4:                                                ; preds = %13, %1
  %5 = load i64, ptr %3, align 8, !tbaa !3
  %6 = icmp ult i64 %5, 16
  br i1 %6, label %8, label %7

7:                                                ; preds = %4
  call void @llvm.lifetime.end.p0(i64 8, ptr %3) #8
  br label %16

8:                                                ; preds = %4
  %9 = load ptr, ptr %2, align 8, !tbaa !7
  %10 = getelementptr inbounds nuw %struct.mi_commit_mask_s, ptr %9, i32 0, i32 0
  %11 = load i64, ptr %3, align 8, !tbaa !3
  %12 = getelementptr inbounds nuw [16 x i64], ptr %10, i64 0, i64 %11
  store i64 0, ptr %12, align 8, !tbaa !3
  br label %13

13:                                               ; preds = %8
  %14 = load i64, ptr %3, align 8, !tbaa !3
  %15 = add i64 %14, 1
  store i64 %15, ptr %3, align 8, !tbaa !3
  br label %4, !llvm.loop !40

16:                                               ; preds = %7
  ret void
}

; Function Attrs: inlinehint nounwind uwtable
define internal zeroext i1 @mi_commit_mask_is_full(ptr noundef %0) #2 {
  %2 = alloca i1, align 1
  %3 = alloca ptr, align 8
  %4 = alloca i64, align 8
  %5 = alloca i32, align 4
  store ptr %0, ptr %3, align 8, !tbaa !7
  call void @llvm.lifetime.start.p0(i64 8, ptr %4) #8
  store i64 0, ptr %4, align 8, !tbaa !3
  br label %6

6:                                                ; preds = %19, %1
  %7 = load i64, ptr %4, align 8, !tbaa !3
  %8 = icmp ult i64 %7, 16
  br i1 %8, label %10, label %9

9:                                                ; preds = %6
  store i32 2, ptr %5, align 4
  br label %22

10:                                               ; preds = %6
  %11 = load ptr, ptr %3, align 8, !tbaa !7
  %12 = getelementptr inbounds nuw %struct.mi_commit_mask_s, ptr %11, i32 0, i32 0
  %13 = load i64, ptr %4, align 8, !tbaa !3
  %14 = getelementptr inbounds nuw [16 x i64], ptr %12, i64 0, i64 %13
  %15 = load i64, ptr %14, align 8, !tbaa !3
  %16 = icmp ne i64 %15, -1
  br i1 %16, label %17, label %18

17:                                               ; preds = %10
  store i1 false, ptr %2, align 1
  store i32 1, ptr %5, align 4
  br label %22

18:                                               ; preds = %10
  br label %19

19:                                               ; preds = %18
  %20 = load i64, ptr %4, align 8, !tbaa !3
  %21 = add i64 %20, 1
  store i64 %21, ptr %4, align 8, !tbaa !3
  br label %6, !llvm.loop !45

22:                                               ; preds = %17, %9
  call void @llvm.lifetime.end.p0(i64 8, ptr %4) #8
  %23 = load i32, ptr %5, align 4
  switch i32 %23, label %27 [
    i32 2, label %24
    i32 1, label %25
  ]

24:                                               ; preds = %22
  store i1 true, ptr %2, align 1
  br label %25

25:                                               ; preds = %24, %22
  %26 = load i1, ptr %2, align 1
  ret i1 %26

27:                                               ; preds = %22
  unreachable
}

; Function Attrs: inlinehint nounwind uwtable
define internal zeroext i1 @mi_commit_mask_is_empty(ptr noundef %0) #2 {
  %2 = alloca i1, align 1
  %3 = alloca ptr, align 8
  %4 = alloca i64, align 8
  %5 = alloca i32, align 4
  store ptr %0, ptr %3, align 8, !tbaa !7
  call void @llvm.lifetime.start.p0(i64 8, ptr %4) #8
  store i64 0, ptr %4, align 8, !tbaa !3
  br label %6

6:                                                ; preds = %19, %1
  %7 = load i64, ptr %4, align 8, !tbaa !3
  %8 = icmp ult i64 %7, 16
  br i1 %8, label %10, label %9

9:                                                ; preds = %6
  store i32 2, ptr %5, align 4
  br label %22

10:                                               ; preds = %6
  %11 = load ptr, ptr %3, align 8, !tbaa !7
  %12 = getelementptr inbounds nuw %struct.mi_commit_mask_s, ptr %11, i32 0, i32 0
  %13 = load i64, ptr %4, align 8, !tbaa !3
  %14 = getelementptr inbounds nuw [16 x i64], ptr %12, i64 0, i64 %13
  %15 = load i64, ptr %14, align 8, !tbaa !3
  %16 = icmp ne i64 %15, 0
  br i1 %16, label %17, label %18

17:                                               ; preds = %10
  store i1 false, ptr %2, align 1
  store i32 1, ptr %5, align 4
  br label %22

18:                                               ; preds = %10
  br label %19

19:                                               ; preds = %18
  %20 = load i64, ptr %4, align 8, !tbaa !3
  %21 = add i64 %20, 1
  store i64 %21, ptr %4, align 8, !tbaa !3
  br label %6, !llvm.loop !37

22:                                               ; preds = %17, %9
  call void @llvm.lifetime.end.p0(i64 8, ptr %4) #8
  %23 = load i32, ptr %5, align 4
  switch i32 %23, label %27 [
    i32 2, label %24
    i32 1, label %25
  ]

24:                                               ; preds = %22
  store i1 true, ptr %2, align 1
  br label %25

25:                                               ; preds = %24, %22
  %26 = load i1, ptr %2, align 1
  ret i1 %26

27:                                               ; preds = %22
  unreachable
}

; Function Attrs: noinline nounwind uwtable
define internal void @mi_commit_mask_decommit(ptr noundef %0, ptr noundef %1, i64 noundef %2, ptr noundef %3) #0 {
  %5 = alloca ptr, align 8
  %6 = alloca ptr, align 8
  %7 = alloca i64, align 8
  %8 = alloca ptr, align 8
  %9 = alloca i64, align 8
  %10 = alloca i64, align 8
  %11 = alloca i64, align 8
  %12 = alloca ptr, align 8
  %13 = alloca i64, align 8
  store ptr %0, ptr %5, align 8, !tbaa !7
  store ptr %1, ptr %6, align 8, !tbaa !27
  store i64 %2, ptr %7, align 8, !tbaa !3
  store ptr %3, ptr %8, align 8, !tbaa !38
  %14 = load ptr, ptr %5, align 8, !tbaa !7
  %15 = call zeroext i1 @mi_commit_mask_is_empty(ptr noundef %14)
  br i1 %15, label %16, label %17

16:                                               ; preds = %4
  br label %50

17:                                               ; preds = %4
  %18 = load ptr, ptr %5, align 8, !tbaa !7
  %19 = call zeroext i1 @mi_commit_mask_is_full(ptr noundef %18)
  br i1 %19, label %20, label %25

20:                                               ; preds = %17
  %21 = load ptr, ptr %6, align 8, !tbaa !27
  %22 = load i64, ptr %7, align 8, !tbaa !3
  %23 = load ptr, ptr %8, align 8, !tbaa !38
  %24 = call zeroext i1 @_mi_os_decommit(ptr noundef %21, i64 noundef %22, ptr noundef %23)
  br label %49

25:                                               ; preds = %17
  call void @llvm.lifetime.start.p0(i64 8, ptr %9) #8
  %26 = load i64, ptr %7, align 8, !tbaa !3
  %27 = udiv i64 %26, 1024
  store i64 %27, ptr %9, align 8, !tbaa !3
  call void @llvm.lifetime.start.p0(i64 8, ptr %10) #8
  call void @llvm.lifetime.start.p0(i64 8, ptr %11) #8
  store i64 0, ptr %10, align 8, !tbaa !3
  br label %28

28:                                               ; preds = %32, %25
  %29 = load ptr, ptr %5, align 8, !tbaa !7
  %30 = call i64 @_mi_commit_mask_next_run(ptr noundef %29, ptr noundef %10)
  store i64 %30, ptr %11, align 8, !tbaa !3
  %31 = icmp ugt i64 %30, 0
  br i1 %31, label %32, label %48

32:                                               ; preds = %28
  call void @llvm.lifetime.start.p0(i64 8, ptr %12) #8
  %33 = load ptr, ptr %6, align 8, !tbaa !27
  %34 = load i64, ptr %10, align 8, !tbaa !3
  %35 = load i64, ptr %9, align 8, !tbaa !3
  %36 = mul i64 %34, %35
  %37 = getelementptr inbounds nuw i8, ptr %33, i64 %36
  store ptr %37, ptr %12, align 8, !tbaa !27
  call void @llvm.lifetime.start.p0(i64 8, ptr %13) #8
  %38 = load i64, ptr %11, align 8, !tbaa !3
  %39 = load i64, ptr %9, align 8, !tbaa !3
  %40 = mul i64 %38, %39
  store i64 %40, ptr %13, align 8, !tbaa !3
  %41 = load ptr, ptr %12, align 8, !tbaa !27
  %42 = load i64, ptr %13, align 8, !tbaa !3
  %43 = load ptr, ptr %8, align 8, !tbaa !38
  %44 = call zeroext i1 @_mi_os_decommit(ptr noundef %41, i64 noundef %42, ptr noundef %43)
  call void @llvm.lifetime.end.p0(i64 8, ptr %13) #8
  call void @llvm.lifetime.end.p0(i64 8, ptr %12) #8
  %45 = load i64, ptr %11, align 8, !tbaa !3
  %46 = load i64, ptr %10, align 8, !tbaa !3
  %47 = add i64 %46, %45
  store i64 %47, ptr %10, align 8, !tbaa !3
  br label %28, !llvm.loop !39

48:                                               ; preds = %28
  call void @llvm.lifetime.end.p0(i64 8, ptr %11) #8
  call void @llvm.lifetime.end.p0(i64 8, ptr %10) #8
  call void @llvm.lifetime.end.p0(i64 8, ptr %9) #8
  br label %49

49:                                               ; preds = %48, %20
  br label %50

50:                                               ; preds = %49, %16
  %51 = load ptr, ptr %5, align 8, !tbaa !7
  call void @mi_commit_mask_create_empty(ptr noundef %51)
  ret void
}