; Function Attrs: noinline nounwind uwtable
define internal fastcc void @mi_commit_mask_decommit(ptr noundef %0, ptr noundef %1, ptr noundef %2) unnamed_addr #0 {
  %4 = alloca i64, align 8
  br label %5

5:                                                ; preds = %5, %3
  %.057.i = phi i64 [ 0, %3 ], [ %8, %5 ]
  %6 = getelementptr inbounds nuw [16 x i64], ptr %0, i64 0, i64 %.057.i
  %7 = load i64, ptr %6, align 8, !tbaa !5
  %.not.i = icmp eq i64 %7, 0
  %8 = add nuw nsw i64 %.057.i, 1
  %exitcond.i = icmp ne i64 %8, 16
  %or.cond.not.i = select i1 %.not.i, i1 %exitcond.i, i1 false
  br i1 %or.cond.not.i, label %5, label %mi_commit_mask_is_empty.exit, !llvm.loop !26

mi_commit_mask_is_empty.exit:                     ; preds = %5
  br i1 %.not.i, label %25, label %.preheader

.preheader:                                       ; preds = %mi_commit_mask_is_empty.exit, %.preheader
  %.057.i15 = phi i64 [ %11, %.preheader ], [ 0, %mi_commit_mask_is_empty.exit ]
  %9 = getelementptr inbounds nuw [16 x i64], ptr %0, i64 0, i64 %.057.i15
  %10 = load i64, ptr %9, align 8, !tbaa !5
  %.not.i16 = icmp eq i64 %10, -1
  %11 = add nuw nsw i64 %.057.i15, 1
  %exitcond.i17 = icmp ne i64 %11, 16
  %or.cond.not.i18 = select i1 %.not.i16, i1 %exitcond.i17, i1 false
  br i1 %or.cond.not.i18, label %.preheader, label %mi_commit_mask_is_full.exit, !llvm.loop !27

mi_commit_mask_is_full.exit:                      ; preds = %.preheader
  br i1 %.not.i16, label %12, label %14

12:                                               ; preds = %mi_commit_mask_is_full.exit
  %13 = tail call zeroext i1 @_mi_os_decommit(ptr noundef %1, i64 noundef 67108864, ptr noundef %2) #9
  br label %25

14:                                               ; preds = %mi_commit_mask_is_full.exit
  call void @llvm.lifetime.start.p0(i64 8, ptr nonnull %4) #9
  store i64 0, ptr %4, align 8, !tbaa !5
  %15 = call i64 @_mi_commit_mask_next_run(ptr noundef nonnull %0, ptr noundef nonnull %4) #9
  %.not19 = icmp eq i64 %15, 0
  br i1 %.not19, label %._crit_edge, label %.lr.ph

.lr.ph:                                           ; preds = %14, %.lr.ph
  %16 = phi i64 [ %24, %.lr.ph ], [ %15, %14 ]
  %17 = load i64, ptr %4, align 8, !tbaa !5
  %18 = shl i64 %17, 16
  %19 = getelementptr inbounds nuw i8, ptr %1, i64 %18
  %20 = shl i64 %16, 16
  %21 = call zeroext i1 @_mi_os_decommit(ptr noundef %19, i64 noundef %20, ptr noundef %2) #9
  %22 = load i64, ptr %4, align 8, !tbaa !5
  %23 = add i64 %22, %16
  store i64 %23, ptr %4, align 8, !tbaa !5
  %24 = call i64 @_mi_commit_mask_next_run(ptr noundef nonnull %0, ptr noundef nonnull %4) #9
  %.not = icmp eq i64 %24, 0
  br i1 %.not, label %._crit_edge, label %.lr.ph, !llvm.loop !28

._crit_edge:                                      ; preds = %.lr.ph, %14
  call void @llvm.lifetime.end.p0(i64 8, ptr nonnull %4) #9
  br label %25

25:                                               ; preds = %12, %._crit_edge, %mi_commit_mask_is_empty.exit
  call void @llvm.memset.p0.i64(ptr noundef nonnull align 8 dereferenceable(128) %0, i8 0, i64 128, i1 false), !tbaa !5
  ret void
}